; Function Attrs: nounwind uwtable
define internal i32 @accel_include_path_on_modify(ptr noundef %0, ptr noundef %1, ptr noundef %2, ptr noundef %3, ptr noundef %4, i32 noundef %5) #0 {
  %7 = load ptr, ptr @orig_include_path_on_modify, align 8, !tbaa !39
  %8 = tail call i32 %7(ptr noundef %0, ptr noundef %1, ptr noundef %2, ptr noundef %3, ptr noundef %4, i32 noundef %5) #26
  %9 = icmp eq i32 %8, 0
  br i1 %9, label %10, label %11

10:                                               ; preds = %6
  store ptr %1, ptr getelementptr inbounds nuw (i8, ptr @accel_globals, i64 192), align 8, !tbaa !150
  store i32 0, ptr getelementptr inbounds nuw (i8, ptr @accel_globals, i64 264), align 8, !tbaa !149
  store i8 1, ptr getelementptr inbounds nuw (i8, ptr @accel_globals, i64 268), align 4, !tbaa !151
  br label %11

11:                                               ; preds = %10, %6
  ret i32 %8
}